target datalayout = "e-m:e-p270:32:32-p271:32:32-p272:64:64-i64:64-i128:128-f80:128-n8:16:32:64-S128"
target triple = "x86_64-pc-linux-gnu"

; Function Attrs: mustprogress nounwind uwtable
define internal noundef i32 @_ZL10calc_RBbinfif(float noundef %0, i32 noundef %1, float noundef %2) #4 {
  %4 = alloca i32, align 4
  %5 = alloca float, align 4
  %6 = alloca i32, align 4
  %7 = alloca float, align 4
  store float %0, ptr %5, align 4, !tbaa !17
  store i32 %1, ptr %6, align 4, !tbaa !11
  store float %2, ptr %7, align 4, !tbaa !17
  %8 = load float, ptr %5, align 4, !tbaa !17
  %9 = fcmp olt float %8, 0x3FE0C15240000000
  br i1 %9, label %10, label %14

10:                                               ; preds = %3
  %11 = load float, ptr %5, align 4, !tbaa !17
  %12 = fcmp ogt float %11, 0xBFE0C15240000000
  br i1 %12, label %13, label %14

13:                                               ; preds = %10
  store i32 1, ptr %4, align 4
  br label %31

14:                                               ; preds = %10, %3
  %15 = load float, ptr %5, align 4, !tbaa !17
  %16 = fcmp ogt float %15, 0xC004F1A6C0000000
  br i1 %16, label %17, label %21

17:                                               ; preds = %14
  %18 = load float, ptr %5, align 4, !tbaa !17
  %19 = fcmp olt float %18, 0xBFF921FB60000000
  br i1 %19, label %20, label %21

20:                                               ; preds = %17
  store i32 2, ptr %4, align 4
  br label %31

21:                                               ; preds = %17, %14
  %22 = load float, ptr %5, align 4, !tbaa !17
  %23 = fcmp olt float %22, 0x4004F1A6C0000000
  br i1 %23, label %24, label %28

24:                                               ; preds = %21
  %25 = load float, ptr %5, align 4, !tbaa !17
  %26 = fcmp ogt float %25, 0x3FF921FB60000000
  br i1 %26, label %27, label %28

27:                                               ; preds = %24
  store i32 3, ptr %4, align 4
  br label %31

28:                                               ; preds = %24, %21
  br label %29

29:                                               ; preds = %28
  br label %30

30:                                               ; preds = %29
  store i32 0, ptr %4, align 4
  br label %31

31:                                               ; preds = %30, %27, %20, %13
  %32 = load i32, ptr %4, align 4
  ret i32 %32
}