; Function Attrs: mustprogress nofree norecurse nosync nounwind willreturn memory(none) uwtable
define internal noundef range(i32 0, 4) i32 @_ZL10calc_RBbinfif(float noundef %0, i32 %1, float %2) unnamed_addr #15 {
  %4 = tail call float @llvm.fabs.f32(float %0)
  %or.cond = fcmp olt float %4, 0x3FE0C15240000000
  br i1 %or.cond, label %11, label %5

5:                                                ; preds = %3
  %6 = fcmp ogt float %0, 0xC004F1A6C0000000
  %7 = fcmp olt float %0, 0xBFF921FB60000000
  %or.cond3 = and i1 %6, %7
  br i1 %or.cond3, label %11, label %8

8:                                                ; preds = %5
  %9 = fcmp olt float %0, 0x4004F1A6C0000000
  %10 = fcmp ogt float %0, 0x3FF921FB60000000
  %or.cond5 = and i1 %9, %10
  %. = select i1 %or.cond5, i32 3, i32 0
  br label %11

11:                                               ; preds = %8, %5, %3
  %.0 = phi i32 [ 1, %3 ], [ 2, %5 ], [ %., %8 ]
  ret i32 %.0
}